Certificate:
    Data:
        Version: 3 (0x2)
        Serial Number: 1 (0x1)
        Signature Algorithm: ecdsa-with-SHA256
        Issuer: C=UA, ST=Kharkov, L=Kharkov, O=SManSoft, OU=SManSoft.SpringLogin, CN=SManSoft.SpringLogin.CA/emailAddress=smansoft@gmail.com
        Validity
            Not Before: Jul  9 04:44:36 2019 GMT
            Not After : Jul  7 04:44:36 2024 GMT
        Subject: C=UA, ST=Kharkov, L=Kharkov, O=SManSoft, OU=SManSoft.SpringLogin, CN=SManSoft.SpringLogin.CA/emailAddress=smansoft@gmail.com
        Subject Public Key Info:
            Public Key Algorithm: id-ecPublicKey
                Public-Key: (256 bit)
                pub:
                    04:98:9a:81:02:fe:b6:28:3f:cd:73:bb:04:89:dd:
                    1f:ff:9e:73:85:12:81:92:9f:f3:4d:d0:92:bb:4c:
                    48:38:2c:a3:ee:40:94:4f:8f:c1:fe:c7:ce:c1:02:
                    15:21:22:56:a7:f7:36:03:05:1a:cf:d2:9e:72:b9:
                    26:d6:bd:13:00
                ASN1 OID: prime256v1
                NIST CURVE: P-256
        X509v3 extensions:
            X509v3 Basic Constraints: critical
                CA:TRUE
            X509v3 Subject Key Identifier: 
                B4:62:2E:63:67:52:37:53:8A:AC:92:CA:CD:08:73:48:BB:13:B1:06
            X509v3 Authority Key Identifier: 
                keyid:B4:62:2E:63:67:52:37:53:8A:AC:92:CA:CD:08:73:48:BB:13:B1:06

            X509v3 Key Usage: critical
                Digital Signature, Key Agreement, Certificate Sign, CRL Sign
            X509v3 Extended Key Usage: critical
                TLS Web Server Authentication, TLS Web Client Authentication
    Signature Algorithm: ecdsa-with-SHA256
         30:45:02:21:00:94:69:76:b1:a9:f4:3d:0a:03:ce:a1:96:ac:
         6f:ca:42:08:b5:41:34:53:b8:7c:ca:a2:73:05:d0:5e:55:48:
         13:02:20:64:11:b0:09:c1:e6:b0:02:17:37:a1:0d:34:9c:14:
         45:79:93:42:9f:60:65:68:57:ec:89:c4:14:32:2d:bf:58
-----BEGIN CERTIFICATE-----
MIICyDCCAm6gAwIBAgIBATAKBggqhkjOPQQDAjCBqDELMAkGA1UEBhMCVUExEDAO
BgNVBAgMB0toYXJrb3YxEDAOBgNVBAcMB0toYXJrb3YxETAPBgNVBAoMCFNNYW5T
b2Z0MR0wGwYDVQQLDBRTTWFuU29mdC5TcHJpbmdMb2dpbjEgMB4GA1UEAwwXU01h
blNvZnQuU3ByaW5nTG9naW4uQ0ExITAfBgkqhkiG9w0BCQEWEnNtYW5zb2Z0QGdt
YWlsLmNvbTAeFw0xOTA3MDkwNDQ0MzZaFw0yNDA3MDcwNDQ0MzZaMIGoMQswCQYD
VQQGEwJVQTEQMA4GA1UECAwHS2hhcmtvdjEQMA4GA1UEBwwHS2hhcmtvdjERMA8G
A1UECgwIU01hblNvZnQxHTAbBgNVBAsMFFNNYW5Tb2Z0LlNwcmluZ0xvZ2luMSAw
HgYDVQQDDBdTTWFuU29mdC5TcHJpbmdMb2dpbi5DQTEhMB8GCSqGSIb3DQEJARYS
c21hbnNvZnRAZ21haWwuY29tMFkwEwYHKoZIzj0CAQYIKoZIzj0DAQcDQgAEmJqB
Av62KD/Nc7sEid0f/55zhRKBkp/zTdCSu0xIOCyj7kCUT4/B/sfOwQIVISJWp/c2
AwUaz9Kecrkm1r0TAKOBhjCBgzAPBgNVHRMBAf8EBTADAQH/MB0GA1UdDgQWBBS0
Yi5jZ1I3U4qsksrNCHNIuxOxBjAfBgNVHSMEGDAWgBS0Yi5jZ1I3U4qsksrNCHNI
uxOxBjAOBgNVHQ8BAf8EBAMCAY4wIAYDVR0lAQH/BBYwFAYIKwYBBQUHAwEGCCsG
AQUFBwMCMAoGCCqGSM49BAMCA0gAMEUCIQCUaXaxqfQ9CgPOoZasb8pCCLVBNFO4
fMqicwXQXlVIEwIgZBGwCcHmsAIXN6ENNJwURXmTQp9gZWhX7InEFDItv1g=
-----END CERTIFICATE-----
