Certificate:
    Data:
        Version: 3 (0x2)
        Serial Number: 2 (0x2)
        Signature Algorithm: ecdsa-with-SHA256
        Issuer: C=UA, ST=Kharkov, L=Kharkov, O=SManSoft, OU=SManSoft.SpringLogin, CN=SManSoft.SpringLogin.CA/emailAddress=smansoft@gmail.com
        Validity
            Not Before: Jul  9 04:44:37 2019 GMT
            Not After : Jul  7 04:44:37 2024 GMT
        Subject: C=UA, ST=Kharkov, L=Kharkov, O=SManSoft, OU=SManSoft.SpringLogin, CN=localhost/emailAddress=smansoft@gmail.com
        Subject Public Key Info:
            Public Key Algorithm: id-ecPublicKey
                Public-Key: (256 bit)
                pub:
                    04:89:eb:87:b2:a0:2e:17:42:c7:b1:70:4f:1f:7d:
                    46:21:8f:a8:1f:7c:69:fc:e7:3e:7e:d8:5d:ee:2c:
                    57:32:2e:a3:b7:6c:0e:5b:2e:e8:8e:ce:0d:1b:2e:
                    a5:ff:d7:0c:53:1a:67:b5:2a:88:44:65:e4:9d:2f:
                    e9:a8:3d:6c:f1
                ASN1 OID: prime256v1
                NIST CURVE: P-256
        X509v3 extensions:
            X509v3 Basic Constraints: critical
                CA:FALSE
            X509v3 Subject Key Identifier: 
                3A:D2:42:AC:70:5E:D5:68:5F:6A:25:9C:68:6F:2D:75:00:0C:22:F0
            X509v3 Authority Key Identifier: 
                keyid:B4:62:2E:63:67:52:37:53:8A:AC:92:CA:CD:08:73:48:BB:13:B1:06

            X509v3 Key Usage: critical
                Digital Signature, Key Agreement, Certificate Sign, CRL Sign
            X509v3 Extended Key Usage: critical
                TLS Web Server Authentication, TLS Web Client Authentication
            X509v3 Subject Alternative Name: critical
                DNS:localhost, DNS:*.localhost
    Signature Algorithm: ecdsa-with-SHA256
         30:45:02:20:3a:c2:a6:4a:6d:fa:44:5e:01:0b:88:b8:1e:aa:
         d6:4d:98:da:9d:9c:2d:8b:0e:6e:b0:d7:d6:5d:b1:4f:4a:14:
         02:21:00:a0:68:c5:82:00:1d:3b:eb:b7:98:43:28:f8:48:2a:
         38:e4:a0:55:18:8d:32:cc:04:9c:c9:a4:d8:8a:e7:70:1f
-----BEGIN CERTIFICATE-----
MIIC3TCCAoOgAwIBAgIBAjAKBggqhkjOPQQDAjCBqDELMAkGA1UEBhMCVUExEDAO
BgNVBAgMB0toYXJrb3YxEDAOBgNVBAcMB0toYXJrb3YxETAPBgNVBAoMCFNNYW5T
b2Z0MR0wGwYDVQQLDBRTTWFuU29mdC5TcHJpbmdMb2dpbjEgMB4GA1UEAwwXU01h
blNvZnQuU3ByaW5nTG9naW4uQ0ExITAfBgkqhkiG9w0BCQEWEnNtYW5zb2Z0QGdt
YWlsLmNvbTAeFw0xOTA3MDkwNDQ0MzdaFw0yNDA3MDcwNDQ0MzdaMIGaMQswCQYD
VQQGEwJVQTEQMA4GA1UECAwHS2hhcmtvdjEQMA4GA1UEBwwHS2hhcmtvdjERMA8G
A1UECgwIU01hblNvZnQxHTAbBgNVBAsMFFNNYW5Tb2Z0LlNwcmluZ0xvZ2luMRIw
EAYDVQQDDAlsb2NhbGhvc3QxITAfBgkqhkiG9w0BCQEWEnNtYW5zb2Z0QGdtYWls
LmNvbTBZMBMGByqGSM49AgEGCCqGSM49AwEHA0IABInrh7KgLhdCx7FwTx99RiGP
qB98afznPn7YXe4sVzIuo7dsDlsu6I7ODRsupf/XDFMaZ7UqiERl5J0v6ag9bPGj
gakwgaYwDAYDVR0TAQH/BAIwADAdBgNVHQ4EFgQUOtJCrHBe1WhfaiWcaG8tdQAM
IvAwHwYDVR0jBBgwFoAUtGIuY2dSN1OKrJLKzQhzSLsTsQYwDgYDVR0PAQH/BAQD
AgGOMCAGA1UdJQEB/wQWMBQGCCsGAQUFBwMBBggrBgEFBQcDAjAkBgNVHREBAf8E
GjAYgglsb2NhbGhvc3SCCyoubG9jYWxob3N0MAoGCCqGSM49BAMCA0gAMEUCIDrC
pkpt+kReAQuIuB6q1k2Y2p2cLYsObrDX1l2xT0oUAiEAoGjFggAdO+u3mEMo+Egq
OOSgVRiNMswEnMmk2IrncB8=
-----END CERTIFICATE-----
