Certificate:
    Data:
        Version: 3 (0x2)
        Serial Number: 2 (0x2)
        Signature Algorithm: ecdsa-with-SHA256
        Issuer: C=UA, ST=Kharkov, L=Kharkov, O=SManSoft, OU=SManSoft.SpringLogin, CN=SManSoft.SpringLogin.CA/emailAddress=smansoft@gmail.com
        Validity
            Not Before: Jul  8 08:16:44 2019 GMT
            Not After : Jul  6 08:16:44 2024 GMT
        Subject: C=UA, ST=Kharkov, L=Kharkov, O=SManSoft, OU=SManSoft.SpringLogin, CN=SManSoft.SpringLogin.Server/emailAddress=smansoft@gmail.com
        Subject Public Key Info:
            Public Key Algorithm: id-ecPublicKey
                Public-Key: (256 bit)
                pub:
                    04:7c:ea:23:3f:20:c5:a6:97:63:b9:b2:18:d3:d6:
                    35:dd:9f:17:8d:b8:ec:30:58:59:c7:33:ff:a1:e1:
                    4e:13:67:15:32:f1:db:44:6b:b4:d3:4a:02:71:4c:
                    a2:82:d8:f0:30:2c:59:cf:2b:ba:c8:a1:38:db:4b:
                    22:62:e7:b8:23
                ASN1 OID: prime256v1
                NIST CURVE: P-256
        X509v3 extensions:
            X509v3 Basic Constraints: critical
                CA:FALSE
            X509v3 Subject Key Identifier: 
                B5:21:00:9C:6E:EC:D8:1E:E6:D2:30:FE:41:D1:57:49:9D:70:99:38
            X509v3 Authority Key Identifier: 
                keyid:24:96:38:96:05:27:E7:AC:96:D9:97:6A:B1:7A:21:7B:1A:37:90:E2

            X509v3 Key Usage: critical
                Digital Signature, Key Agreement, Certificate Sign, CRL Sign
            X509v3 Extended Key Usage: critical
                TLS Web Server Authentication, TLS Web Client Authentication
            X509v3 Subject Alternative Name: critical
                DNS:localhost
    Signature Algorithm: ecdsa-with-SHA256
         30:45:02:21:00:d7:9d:1a:75:32:9e:d9:f9:c8:7a:5c:13:6f:
         8c:d8:36:1d:7a:1f:c8:19:e3:e9:fb:63:b1:fb:8a:3b:ef:ac:
         14:02:20:7b:d0:9c:c7:ba:99:b4:cf:83:ff:c6:be:c3:9a:ab:
         c3:b4:be:19:84:a4:91:d3:d4:58:34:55:5b:06:db:b9:68
-----BEGIN CERTIFICATE-----
MIIC4jCCAoigAwIBAgIBAjAKBggqhkjOPQQDAjCBqDELMAkGA1UEBhMCVUExEDAO
BgNVBAgMB0toYXJrb3YxEDAOBgNVBAcMB0toYXJrb3YxETAPBgNVBAoMCFNNYW5T
b2Z0MR0wGwYDVQQLDBRTTWFuU29mdC5TcHJpbmdMb2dpbjEgMB4GA1UEAwwXU01h
blNvZnQuU3ByaW5nTG9naW4uQ0ExITAfBgkqhkiG9w0BCQEWEnNtYW5zb2Z0QGdt
YWlsLmNvbTAeFw0xOTA3MDgwODE2NDRaFw0yNDA3MDYwODE2NDRaMIGsMQswCQYD
VQQGEwJVQTEQMA4GA1UECAwHS2hhcmtvdjEQMA4GA1UEBwwHS2hhcmtvdjERMA8G
A1UECgwIU01hblNvZnQxHTAbBgNVBAsMFFNNYW5Tb2Z0LlNwcmluZ0xvZ2luMSQw
IgYDVQQDDBtTTWFuU29mdC5TcHJpbmdMb2dpbi5TZXJ2ZXIxITAfBgkqhkiG9w0B
CQEWEnNtYW5zb2Z0QGdtYWlsLmNvbTBZMBMGByqGSM49AgEGCCqGSM49AwEHA0IA
BHzqIz8gxaaXY7myGNPWNd2fF4247DBYWccz/6HhThNnFTLx20RrtNNKAnFMooLY
8DAsWc8rusihONtLImLnuCOjgZwwgZkwDAYDVR0TAQH/BAIwADAdBgNVHQ4EFgQU
tSEAnG7s2B7m0jD+QdFXSZ1wmTgwHwYDVR0jBBgwFoAUJJY4lgUn56yW2ZdqsXoh
exo3kOIwDgYDVR0PAQH/BAQDAgGOMCAGA1UdJQEB/wQWMBQGCCsGAQUFBwMBBggr
BgEFBQcDAjAXBgNVHREBAf8EDTALgglsb2NhbGhvc3QwCgYIKoZIzj0EAwIDSAAw
RQIhANedGnUyntn5yHpcE2+M2DYdeh/IGePp+2Ox+4o776wUAiB70JzHupm0z4P/
xr7DmqvDtL4ZhKSR09RYNFVbBtu5aA==
-----END CERTIFICATE-----
