Certificate:
    Data:
        Version: 3 (0x2)
        Serial Number: 2 (0x2)
        Signature Algorithm: sha256WithRSAEncryption
        Issuer: C=UA, ST=Kharkov, L=Kharkov, O=SManSoft, OU=SManSoft.SpringLogin, CN=SManSoft.SpringLogin.CA/emailAddress=smansoft@gmail.com
        Validity
            Not Before: Jul  8 08:16:24 2019 GMT
            Not After : Jul  6 08:16:24 2024 GMT
        Subject: C=UA, ST=Kharkov, L=Kharkov, O=SManSoft, OU=SManSoft.SpringLogin, CN=SManSoft.SpringLogin.Server/emailAddress=smansoft@gmail.com
        Subject Public Key Info:
            Public Key Algorithm: rsaEncryption
                RSA Public-Key: (2048 bit)
                Modulus:
                    00:b1:33:e2:84:97:25:b9:8a:e3:35:4a:1e:31:2c:
                    eb:7b:da:8c:2e:ee:c4:84:23:11:c7:c7:59:fe:92:
                    cf:4b:fc:6f:54:f2:f7:58:23:b9:95:2a:4c:f1:c0:
                    7c:ec:c6:11:ae:a3:17:ef:b9:52:14:f0:e4:18:3d:
                    93:96:63:03:0d:ff:fd:a5:d5:d8:bf:1f:04:45:0a:
                    c1:c2:82:f7:6d:ea:23:8b:d0:80:31:f7:ae:5c:07:
                    74:54:00:e8:ad:b3:6f:8e:d3:7e:74:fa:a4:8f:7f:
                    66:2d:27:90:6b:1a:6b:6f:3e:9c:fe:eb:ec:d9:f2:
                    da:c1:94:c7:b5:71:a0:45:fd:ad:4f:44:62:49:52:
                    03:57:2f:16:f9:fd:1a:e0:9c:df:76:1d:28:42:1a:
                    b7:be:6c:83:9c:c7:a6:c9:e0:73:5b:cc:9d:60:82:
                    a8:8a:2c:fe:70:51:6c:b5:3c:c6:ba:c6:2d:91:5b:
                    20:8b:0b:23:53:88:48:0b:7b:e4:b6:e2:d7:83:4e:
                    8f:43:21:d1:21:ba:bb:04:fb:28:07:b6:37:ca:07:
                    0e:41:91:24:d8:9c:30:8a:8c:5a:db:6a:31:1e:d1:
                    ce:4a:57:0f:bf:4f:5e:d8:a4:43:b4:cd:a8:5c:b4:
                    d1:63:f1:c9:db:97:38:1f:16:0c:54:ec:f7:05:30:
                    65:63
                Exponent: 65537 (0x10001)
        X509v3 extensions:
            X509v3 Basic Constraints: critical
                CA:FALSE
            X509v3 Subject Key Identifier: 
                B1:01:8B:E9:43:B0:DB:2B:79:E9:1F:00:3B:A7:F6:3B:A7:12:D8:76
            X509v3 Authority Key Identifier: 
                keyid:4D:EC:D0:B1:30:4A:46:BE:6D:AB:09:99:8D:76:1F:75:80:79:FB:A1

            X509v3 Key Usage: critical
                Digital Signature, Key Agreement, Certificate Sign, CRL Sign
            X509v3 Extended Key Usage: critical
                TLS Web Server Authentication, TLS Web Client Authentication
            X509v3 Subject Alternative Name: critical
                DNS:localhost
    Signature Algorithm: sha256WithRSAEncryption
         b3:20:75:dc:c9:a1:23:e8:d1:16:02:d0:4b:26:dd:f2:e2:c5:
         4f:17:cc:f0:24:a6:11:9b:c2:ce:59:eb:37:1a:f4:2b:7a:87:
         4a:30:23:96:eb:e1:8c:19:14:04:58:67:b0:e6:a1:70:27:e4:
         6f:ee:49:f3:93:7e:53:7d:f0:74:91:49:84:0a:f6:f6:9e:fd:
         f9:aa:26:7f:3e:77:71:78:09:f3:6a:27:97:5d:ff:2c:b9:29:
         3f:40:fc:06:40:2c:67:15:da:71:d2:b3:75:f5:a5:c1:0c:8e:
         64:d6:24:1c:5d:ba:c2:7c:4c:7c:e5:bf:f5:6e:f3:8c:9f:f5:
         f0:83:46:50:4b:cb:8f:09:03:22:63:0a:e7:b9:12:d1:e4:0e:
         0f:62:e0:a2:6c:ed:2e:b1:fc:80:d8:79:11:df:39:f0:6f:67:
         45:2a:4a:d9:d6:03:32:3c:3e:9c:90:1d:67:be:48:42:a3:48:
         06:d2:88:c1:f8:78:b5:c1:24:ec:ca:62:fc:ae:6b:ea:ec:2b:
         29:d6:92:b3:75:19:d2:8d:f6:64:e0:6b:28:e1:f9:97:b0:6f:
         32:6a:72:2a:02:8c:44:51:9b:62:2d:0d:a1:03:bf:26:64:93:
         ee:e8:90:e6:6f:9c:f7:5f:a9:6d:60:7a:18:1d:40:e1:b7:27:
         4a:ed:83:b4
-----BEGIN CERTIFICATE-----
MIIEbjCCA1agAwIBAgIBAjANBgkqhkiG9w0BAQsFADCBqDELMAkGA1UEBhMCVUEx
EDAOBgNVBAgMB0toYXJrb3YxEDAOBgNVBAcMB0toYXJrb3YxETAPBgNVBAoMCFNN
YW5Tb2Z0MR0wGwYDVQQLDBRTTWFuU29mdC5TcHJpbmdMb2dpbjEgMB4GA1UEAwwX
U01hblNvZnQuU3ByaW5nTG9naW4uQ0ExITAfBgkqhkiG9w0BCQEWEnNtYW5zb2Z0
QGdtYWlsLmNvbTAeFw0xOTA3MDgwODE2MjRaFw0yNDA3MDYwODE2MjRaMIGsMQsw
CQYDVQQGEwJVQTEQMA4GA1UECAwHS2hhcmtvdjEQMA4GA1UEBwwHS2hhcmtvdjER
MA8GA1UECgwIU01hblNvZnQxHTAbBgNVBAsMFFNNYW5Tb2Z0LlNwcmluZ0xvZ2lu
MSQwIgYDVQQDDBtTTWFuU29mdC5TcHJpbmdMb2dpbi5TZXJ2ZXIxITAfBgkqhkiG
9w0BCQEWEnNtYW5zb2Z0QGdtYWlsLmNvbTCCASIwDQYJKoZIhvcNAQEBBQADggEP
ADCCAQoCggEBALEz4oSXJbmK4zVKHjEs63vajC7uxIQjEcfHWf6Sz0v8b1Ty91gj
uZUqTPHAfOzGEa6jF++5UhTw5Bg9k5ZjAw3//aXV2L8fBEUKwcKC923qI4vQgDH3
rlwHdFQA6K2zb47TfnT6pI9/Zi0nkGsaa28+nP7r7Nny2sGUx7VxoEX9rU9EYklS
A1cvFvn9GuCc33YdKEIat75sg5zHpsngc1vMnWCCqIos/nBRbLU8xrrGLZFbIIsL
I1OISAt75Lbi14NOj0Mh0SG6uwT7KAe2N8oHDkGRJNicMIqMWttqMR7RzkpXD79P
XtikQ7TNqFy00WPxyduXOB8WDFTs9wUwZWMCAwEAAaOBnDCBmTAMBgNVHRMBAf8E
AjAAMB0GA1UdDgQWBBSxAYvpQ7DbK3npHwA7p/Y7pxLYdjAfBgNVHSMEGDAWgBRN
7NCxMEpGvm2rCZmNdh91gHn7oTAOBgNVHQ8BAf8EBAMCAY4wIAYDVR0lAQH/BBYw
FAYIKwYBBQUHAwEGCCsGAQUFBwMCMBcGA1UdEQEB/wQNMAuCCWxvY2FsaG9zdDAN
BgkqhkiG9w0BAQsFAAOCAQEAsyB13MmhI+jRFgLQSybd8uLFTxfM8CSmEZvCzlnr
Nxr0K3qHSjAjluvhjBkUBFhnsOahcCfkb+5J85N+U33wdJFJhAr29p79+aomfz53
cXgJ82onl13/LLkpP0D8BkAsZxXacdKzdfWlwQyOZNYkHF26wnxMfOW/9W7zjJ/1
8INGUEvLjwkDImMK57kS0eQOD2LgomztLrH8gNh5Ed858G9nRSpK2dYDMjw+nJAd
Z75IQqNIBtKIwfh4tcEk7Mpi/K5r6uwrKdaSs3UZ0o32ZOBrKOH5l7BvMmpyKgKM
RFGbYi0NoQO/JmST7uiQ5m+c91+pbWB6GB1A4bcnSu2DtA==
-----END CERTIFICATE-----
