Certificate:
    Data:
        Version: 3 (0x2)
        Serial Number: 2 (0x2)
        Signature Algorithm: sha256WithRSAEncryption
        Issuer: C=UA, ST=Kharkov, L=Kharkov, O=SManSoft, OU=SManSoft.SpringLogin, CN=SManSoft.SpringLogin.CA/emailAddress=smansoft@gmail.com
        Validity
            Not Before: Jul  9 04:28:50 2019 GMT
            Not After : Jul  7 04:28:50 2024 GMT
        Subject: C=UA, ST=Kharkov, L=Kharkov, O=SManSoft, OU=SManSoft.SpringLogin, CN=localhost/emailAddress=smansoft@gmail.com
        Subject Public Key Info:
            Public Key Algorithm: rsaEncryption
                RSA Public-Key: (2048 bit)
                Modulus:
                    00:fa:7c:67:3c:47:de:50:5c:4e:43:33:4b:4c:f4:
                    b3:0d:42:73:30:1d:36:2d:23:6e:ae:a8:2f:89:ae:
                    f3:9c:83:18:bb:47:c1:36:27:58:6c:ed:dc:94:b8:
                    7d:ec:33:c0:64:7e:fd:c9:36:29:42:2e:64:57:31:
                    84:69:51:4c:d5:d9:93:65:1f:f6:a1:40:a8:1b:b4:
                    ee:06:e4:cb:4d:57:21:d2:ec:5c:04:7f:7a:b4:fa:
                    90:97:0e:2e:5e:0a:a5:c1:46:82:6f:33:1b:e2:af:
                    13:c0:22:a8:18:c5:55:bb:d0:62:ed:ee:5e:f4:12:
                    4d:63:fe:ad:77:ff:ce:70:69:2e:ae:e0:0b:21:0e:
                    29:62:3c:db:cd:9e:7f:ba:ce:c6:f6:07:c8:e2:f6:
                    47:26:98:12:f8:a3:99:d6:9a:55:2a:27:1d:4d:ef:
                    56:3b:4a:54:11:49:a2:49:9c:40:7e:f0:ce:f2:3e:
                    c5:61:81:a2:a6:cf:ba:32:ee:21:0d:4a:ee:e0:7a:
                    be:7b:64:af:2f:f8:2c:04:a7:54:f5:f2:83:23:d0:
                    51:1c:5b:9c:c6:a8:6b:69:1c:c7:21:a2:d7:bc:ce:
                    76:d3:b6:5f:6a:a4:52:6f:9f:56:4a:22:54:a2:f8:
                    85:12:9d:0c:e8:32:9e:c7:b7:26:c8:47:7e:f8:ee:
                    74:19
                Exponent: 65537 (0x10001)
        X509v3 extensions:
            X509v3 Basic Constraints: critical
                CA:FALSE
            X509v3 Subject Key Identifier: 
                FC:E3:98:34:D7:47:C8:0E:94:2E:A3:58:CC:B8:D1:55:E5:2D:FC:6E
            X509v3 Authority Key Identifier: 
                keyid:A9:E3:63:B2:78:AB:08:3C:5A:FA:60:BE:3A:C8:AB:B1:F8:12:5C:C2

            X509v3 Key Usage: critical
                Digital Signature, Key Agreement, Certificate Sign, CRL Sign
            X509v3 Extended Key Usage: critical
                TLS Web Server Authentication, TLS Web Client Authentication
            X509v3 Subject Alternative Name: critical
                DNS:localhost, DNS:*.localhost
    Signature Algorithm: sha256WithRSAEncryption
         49:8a:68:26:f6:f9:f9:69:6e:d0:9d:39:19:a1:ee:64:26:48:
         ce:d5:e8:09:bd:3b:10:d5:40:c1:32:37:a4:7d:3a:dd:6e:ac:
         69:06:e3:a9:4d:d3:df:2a:22:26:19:40:c9:bd:0a:3b:17:8c:
         ed:c4:31:e6:14:59:53:e9:f3:4a:d5:d2:65:b5:66:c7:e5:99:
         08:d0:ef:db:ce:37:1f:f7:43:76:9f:46:13:71:6e:1a:2a:ce:
         b8:30:df:bd:95:b2:7e:6f:24:a3:0d:cb:f6:6c:b5:92:48:3d:
         a2:5c:eb:4e:25:4b:ff:6a:c2:99:78:06:0b:1d:11:ec:58:9f:
         a4:30:44:ca:87:f3:03:38:6c:98:0a:ef:26:83:fb:04:28:93:
         37:20:9b:b1:1d:8c:ea:cd:04:90:da:74:39:da:74:e6:77:4d:
         c5:f2:55:57:9b:d3:fa:c1:4a:e7:61:db:07:60:0a:92:57:45:
         94:c6:0c:7d:45:6d:90:69:e9:32:83:88:be:04:64:ae:cd:31:
         f9:6a:20:c2:2c:fb:18:51:0e:d5:21:59:b8:87:51:3d:2f:85:
         ec:b9:a4:54:bd:54:83:89:66:14:ad:82:bd:d6:b1:9a:f9:0d:
         d1:f5:39:0e:12:52:99:fd:68:fd:82:ae:4f:ab:c1:6b:a9:8b:
         28:c3:64:c5
-----BEGIN CERTIFICATE-----
MIIEaTCCA1GgAwIBAgIBAjANBgkqhkiG9w0BAQsFADCBqDELMAkGA1UEBhMCVUEx
EDAOBgNVBAgMB0toYXJrb3YxEDAOBgNVBAcMB0toYXJrb3YxETAPBgNVBAoMCFNN
YW5Tb2Z0MR0wGwYDVQQLDBRTTWFuU29mdC5TcHJpbmdMb2dpbjEgMB4GA1UEAwwX
U01hblNvZnQuU3ByaW5nTG9naW4uQ0ExITAfBgkqhkiG9w0BCQEWEnNtYW5zb2Z0
QGdtYWlsLmNvbTAeFw0xOTA3MDkwNDI4NTBaFw0yNDA3MDcwNDI4NTBaMIGaMQsw
CQYDVQQGEwJVQTEQMA4GA1UECAwHS2hhcmtvdjEQMA4GA1UEBwwHS2hhcmtvdjER
MA8GA1UECgwIU01hblNvZnQxHTAbBgNVBAsMFFNNYW5Tb2Z0LlNwcmluZ0xvZ2lu
MRIwEAYDVQQDDAlsb2NhbGhvc3QxITAfBgkqhkiG9w0BCQEWEnNtYW5zb2Z0QGdt
YWlsLmNvbTCCASIwDQYJKoZIhvcNAQEBBQADggEPADCCAQoCggEBAPp8ZzxH3lBc
TkMzS0z0sw1CczAdNi0jbq6oL4mu85yDGLtHwTYnWGzt3JS4fewzwGR+/ck2KUIu
ZFcxhGlRTNXZk2Uf9qFAqBu07gbky01XIdLsXAR/erT6kJcOLl4KpcFGgm8zG+Kv
E8AiqBjFVbvQYu3uXvQSTWP+rXf/znBpLq7gCyEOKWI8282ef7rOxvYHyOL2RyaY
EvijmdaaVSonHU3vVjtKVBFJokmcQH7wzvI+xWGBoqbPujLuIQ1K7uB6vntkry/4
LASnVPXygyPQURxbnMaoa2kcxyGi17zOdtO2X2qkUm+fVkoiVKL4hRKdDOgynse3
JshHfvjudBkCAwEAAaOBqTCBpjAMBgNVHRMBAf8EAjAAMB0GA1UdDgQWBBT845g0
10fIDpQuo1jMuNFV5S38bjAfBgNVHSMEGDAWgBSp42OyeKsIPFr6YL46yKux+BJc
wjAOBgNVHQ8BAf8EBAMCAY4wIAYDVR0lAQH/BBYwFAYIKwYBBQUHAwEGCCsGAQUF
BwMCMCQGA1UdEQEB/wQaMBiCCWxvY2FsaG9zdIILKi5sb2NhbGhvc3QwDQYJKoZI
hvcNAQELBQADggEBAEmKaCb2+flpbtCdORmh7mQmSM7V6Am9OxDVQMEyN6R9Ot1u
rGkG46lN098qIiYZQMm9CjsXjO3EMeYUWVPp80rV0mW1ZsflmQjQ79vONx/3Q3af
RhNxbhoqzrgw372Vsn5vJKMNy/ZstZJIPaJc604lS/9qwpl4BgsdEexYn6QwRMqH
8wM4bJgK7yaD+wQokzcgm7EdjOrNBJDadDnadOZ3TcXyVVeb0/rBSudh2wdgCpJX
RZTGDH1FbZBp6TKDiL4EZK7NMflqIMIs+xhRDtUhWbiHUT0vhey5pFS9VIOJZhSt
gr3WsZr5DdH1OQ4SUpn9aP2Crk+rwWupiyjDZMU=
-----END CERTIFICATE-----
