Certificate:
    Data:
        Version: 3 (0x2)
        Serial Number: 1 (0x1)
        Signature Algorithm: ecdsa-with-SHA256
        Issuer: C=UA, ST=Kharkov, L=Kharkov, O=SManSoft, OU=SManSoft.SpringLogin, CN=SManSoft.SpringLogin.CA/emailAddress=smansoft@gmail.com
        Validity
            Not Before: Jul  8 08:16:41 2019 GMT
            Not After : Jul  6 08:16:41 2024 GMT
        Subject: C=UA, ST=Kharkov, L=Kharkov, O=SManSoft, OU=SManSoft.SpringLogin, CN=SManSoft.SpringLogin.CA/emailAddress=smansoft@gmail.com
        Subject Public Key Info:
            Public Key Algorithm: id-ecPublicKey
                Public-Key: (256 bit)
                pub:
                    04:be:6c:ad:47:75:71:9d:af:fb:4a:4a:5d:bf:9c:
                    27:0f:a3:04:30:cd:f7:5d:ec:ae:c5:e6:e1:00:75:
                    b7:cd:93:13:ad:87:4d:73:89:e2:dd:33:5a:d3:e8:
                    dc:69:dd:ab:81:0f:36:50:de:6f:8b:72:61:10:cf:
                    95:c5:d7:f7:a1
                ASN1 OID: prime256v1
                NIST CURVE: P-256
        X509v3 extensions:
            X509v3 Basic Constraints: critical
                CA:TRUE
            X509v3 Subject Key Identifier: 
                24:96:38:96:05:27:E7:AC:96:D9:97:6A:B1:7A:21:7B:1A:37:90:E2
            X509v3 Authority Key Identifier: 
                keyid:24:96:38:96:05:27:E7:AC:96:D9:97:6A:B1:7A:21:7B:1A:37:90:E2

            X509v3 Key Usage: critical
                Digital Signature, Key Agreement, Certificate Sign, CRL Sign
            X509v3 Extended Key Usage: critical
                TLS Web Server Authentication, TLS Web Client Authentication
    Signature Algorithm: ecdsa-with-SHA256
         30:45:02:20:08:59:5e:96:55:11:11:0f:92:cd:2f:dc:79:40:
         c5:4e:c0:41:10:be:7d:79:b3:ca:34:2a:2e:4a:0c:81:34:c5:
         02:21:00:b8:52:90:3b:12:f2:b1:e7:17:8d:38:c2:49:7e:2c:
         98:08:43:07:de:bf:f8:a7:f1:db:67:06:9f:ed:96:1c:28
-----BEGIN CERTIFICATE-----
MIICyDCCAm6gAwIBAgIBATAKBggqhkjOPQQDAjCBqDELMAkGA1UEBhMCVUExEDAO
BgNVBAgMB0toYXJrb3YxEDAOBgNVBAcMB0toYXJrb3YxETAPBgNVBAoMCFNNYW5T
b2Z0MR0wGwYDVQQLDBRTTWFuU29mdC5TcHJpbmdMb2dpbjEgMB4GA1UEAwwXU01h
blNvZnQuU3ByaW5nTG9naW4uQ0ExITAfBgkqhkiG9w0BCQEWEnNtYW5zb2Z0QGdt
YWlsLmNvbTAeFw0xOTA3MDgwODE2NDFaFw0yNDA3MDYwODE2NDFaMIGoMQswCQYD
VQQGEwJVQTEQMA4GA1UECAwHS2hhcmtvdjEQMA4GA1UEBwwHS2hhcmtvdjERMA8G
A1UECgwIU01hblNvZnQxHTAbBgNVBAsMFFNNYW5Tb2Z0LlNwcmluZ0xvZ2luMSAw
HgYDVQQDDBdTTWFuU29mdC5TcHJpbmdMb2dpbi5DQTEhMB8GCSqGSIb3DQEJARYS
c21hbnNvZnRAZ21haWwuY29tMFkwEwYHKoZIzj0CAQYIKoZIzj0DAQcDQgAEvmyt
R3Vxna/7Skpdv5wnD6MEMM33XeyuxebhAHW3zZMTrYdNc4ni3TNa0+jcad2rgQ82
UN5vi3JhEM+Vxdf3oaOBhjCBgzAPBgNVHRMBAf8EBTADAQH/MB0GA1UdDgQWBBQk
ljiWBSfnrJbZl2qxeiF7GjeQ4jAfBgNVHSMEGDAWgBQkljiWBSfnrJbZl2qxeiF7
GjeQ4jAOBgNVHQ8BAf8EBAMCAY4wIAYDVR0lAQH/BBYwFAYIKwYBBQUHAwEGCCsG
AQUFBwMCMAoGCCqGSM49BAMCA0gAMEUCIAhZXpZVEREPks0v3HlAxU7AQRC+fXmz
yjQqLkoMgTTFAiEAuFKQOxLysecXjTjCSX4smAhDB96/+Kfx22cGn+2WHCg=
-----END CERTIFICATE-----
